; Function Attrs: nounwind uwtable
define hidden void @SDL_SetDefaultCursor(ptr noundef %0) local_unnamed_addr #0 {
  %2 = load ptr, ptr getelementptr inbounds nuw (i8, ptr @SDL_mouse, i64 272), align 8
  %3 = icmp eq ptr %0, %2
  br i1 %3, label %SDL_SetCursor_REAL.exit, label %4

4:                                                ; preds = %1
  %.not = icmp eq ptr %2, null
  br i1 %.not, label %23, label %5

5:                                                ; preds = %4
  %6 = load ptr, ptr getelementptr inbounds nuw (i8, ptr @SDL_mouse, i64 280), align 8
  %7 = icmp eq ptr %6, %2
  br i1 %7, label %8, label %9

8:                                                ; preds = %5
  store ptr null, ptr getelementptr inbounds nuw (i8, ptr @SDL_mouse, i64 280), align 8
  br label %9

9:                                                ; preds = %8, %5
  store ptr null, ptr getelementptr inbounds nuw (i8, ptr @SDL_mouse, i64 272), align 8
  br label %10

10:                                               ; preds = %11, %9
  %.028 = phi ptr [ null, %9 ], [ %.0, %11 ]
  %.0.in = phi ptr [ getelementptr inbounds nuw (i8, ptr @SDL_mouse, i64 264), %9 ], [ %.0, %11 ]
  %.0 = load ptr, ptr %.0.in, align 8
  %.not32 = icmp eq ptr %.0, null
  br i1 %.not32, label %.loopexit, label %11

11:                                               ; preds = %10
  %12 = icmp eq ptr %.0, %2
  br i1 %12, label %13, label %10, !llvm.loop !5

13:                                               ; preds = %11
  %.not33 = icmp eq ptr %.028, null
  %14 = load ptr, ptr %.0, align 8
  br i1 %.not33, label %16, label %15

15:                                               ; preds = %13
  store ptr %14, ptr %.028, align 8
  br label %.loopexit

16:                                               ; preds = %13
  store ptr %14, ptr getelementptr inbounds nuw (i8, ptr @SDL_mouse, i64 264), align 8
  br label %.loopexit

.loopexit:                                        ; preds = %10, %15, %16
  %17 = load ptr, ptr getelementptr inbounds nuw (i8, ptr @SDL_mouse, i64 32), align 8
  %.not34 = icmp eq ptr %17, null
  br i1 %.not34, label %22, label %18

18:                                               ; preds = %.loopexit
  %19 = getelementptr inbounds nuw i8, ptr %2, i64 8
  %20 = load ptr, ptr %19, align 8
  %.not35 = icmp eq ptr %20, null
  br i1 %.not35, label %22, label %21

21:                                               ; preds = %18
  tail call void %17(ptr noundef nonnull %2) #13
  br label %23

22:                                               ; preds = %18, %.loopexit
  tail call void @SDL_free_REAL(ptr noundef nonnull %2) #13
  br label %23

23:                                               ; preds = %21, %22, %4
  store ptr %0, ptr getelementptr inbounds nuw (i8, ptr @SDL_mouse, i64 272), align 8
  %24 = load ptr, ptr getelementptr inbounds nuw (i8, ptr @SDL_mouse, i64 280), align 8
  %.not36 = icmp ne ptr %24, null
  %25 = icmp eq ptr %0, null
  %or.cond = or i1 %25, %.not36
  br i1 %or.cond, label %SDL_SetCursor_REAL.exit, label %26

26:                                               ; preds = %23
  store ptr %0, ptr getelementptr inbounds nuw (i8, ptr @SDL_mouse, i64 280), align 8
  %27 = load ptr, ptr getelementptr inbounds nuw (i8, ptr @SDL_mouse, i64 128), align 8
  %.not.i.i = icmp eq ptr %27, null
  br i1 %.not.i.i, label %37, label %28

28:                                               ; preds = %26
  %29 = load i8, ptr getelementptr inbounds nuw (i8, ptr @SDL_mouse, i64 288), align 8, !range !3, !noundef !4
  %30 = trunc nuw i8 %29 to i1
  br i1 %30, label %31, label %36

31:                                               ; preds = %28
  %32 = load i8, ptr getelementptr inbounds nuw (i8, ptr @SDL_mouse, i64 185), align 1, !range !3, !noundef !4
  %33 = trunc nuw i8 %32 to i1
  %34 = load i8, ptr getelementptr inbounds nuw (i8, ptr @SDL_mouse, i64 187), align 1, !range !3
  %35 = trunc nuw i8 %34 to i1
  %or.cond.i.i = select i1 %33, i1 %35, i1 false
  br i1 %or.cond.i.i, label %36, label %37

36:                                               ; preds = %31, %28
  br label %37

37:                                               ; preds = %36, %31, %26
  %.1.i.i = phi ptr [ null, %36 ], [ %0, %31 ], [ %0, %26 ]
  %38 = load ptr, ptr getelementptr inbounds nuw (i8, ptr @SDL_mouse, i64 16), align 8
  %.not12.i.i = icmp eq ptr %38, null
  br i1 %.not12.i.i, label %SDL_SetCursor_REAL.exit, label %39

39:                                               ; preds = %37
  %40 = tail call zeroext i1 %38(ptr noundef %.1.i.i) #13
  br label %SDL_SetCursor_REAL.exit

SDL_SetCursor_REAL.exit:                          ; preds = %39, %37, %23, %1
  ret void
}